Certificate:
    Data:
        Version: 3 (0x2)
        Serial Number:
            62:69:c7:4b:86:4b:d8:58:74:de:c9:37:bd:3b:6c:ad:c7:d1:94:0e
        Signature Algorithm: sha256WithRSAEncryption
        Issuer: C=ES, ST=Barcelona, O=AS org, OU=AS org, CN=CA
        Validity
            Not Before: Nov 23 17:05:12 2025 GMT
            Not After : Nov 23 17:05:12 2035 GMT
        Subject: C=ES, ST=Barcelona, O=AS org, OU=AS org, CN=CA
        Subject Public Key Info:
            Public Key Algorithm: rsaEncryption
                Public-Key: (4096 bit)
                Modulus:
                    00:b9:60:70:93:13:eb:d1:e8:e8:7d:7b:71:4b:0d:
                    e3:5a:a1:ef:7e:ed:cb:92:38:19:83:d0:03:4f:42:
                    fc:38:0b:ca:ef:d1:c3:28:31:b9:ef:a0:a5:de:07:
                    64:b5:e4:38:44:07:19:e7:e9:e1:05:33:3b:d2:08:
                    ef:f7:65:a2:9f:30:21:a0:77:3b:33:3f:ca:3c:86:
                    84:6b:f8:1f:0a:55:66:f4:c1:44:16:67:24:18:2a:
                    d3:ed:db:a5:34:a2:1c:8a:f0:b1:e3:c8:34:e0:2e:
                    fd:ae:88:d6:fa:db:ff:5c:09:4f:bb:36:fa:91:d7:
                    47:ee:42:42:6e:c4:1f:71:5b:9e:98:76:de:be:7c:
                    41:4d:5b:38:89:04:55:ad:fe:bc:51:38:f4:04:de:
                    0f:5b:85:24:0b:1b:b9:2f:eb:0c:10:55:80:31:34:
                    bc:04:e1:ae:04:21:36:3a:48:71:25:98:de:03:78:
                    91:28:9f:3e:82:8e:37:63:55:bf:8c:8c:e8:9f:ac:
                    a1:ad:b8:76:92:95:b0:c8:50:30:45:df:92:4d:d0:
                    a8:92:da:01:5a:12:5a:2e:5c:ef:84:16:34:79:36:
                    f5:ea:1b:72:cf:fc:8e:12:be:30:57:25:b0:1b:fe:
                    54:87:e8:ad:35:19:40:3b:44:a9:e0:77:1e:bd:37:
                    c5:b3:68:8d:09:9c:07:d3:d5:21:69:d5:bc:dd:b1:
                    23:0b:21:bd:e8:22:c3:64:be:5c:f1:b8:fc:a0:8f:
                    88:93:0b:f0:9a:1a:11:43:2c:3a:d3:a0:8a:62:30:
                    99:b8:06:50:6c:50:d8:a2:4b:a9:ed:46:36:3a:93:
                    49:16:d5:52:e3:36:34:ed:cc:75:9e:dd:00:f3:90:
                    98:a5:20:f0:a2:5e:c7:87:a7:3d:e5:65:8a:cc:ef:
                    f4:f3:50:ad:25:8c:33:db:80:a7:81:8b:70:55:fb:
                    e4:30:a6:d8:ce:20:c2:a3:8a:51:d4:fe:40:1c:f1:
                    99:b4:59:df:3f:d5:40:23:aa:45:71:0c:53:76:3a:
                    07:46:91:2f:77:fd:65:74:79:90:10:9d:4f:6f:71:
                    e8:11:a7:c0:f1:e2:bc:e8:13:5b:90:e4:cb:50:8f:
                    4a:ab:a7:02:54:96:0d:8b:1b:a7:26:20:05:4c:cc:
                    2f:d8:9f:ff:ed:c1:d4:ef:0d:7a:45:d9:dc:d7:88:
                    a1:b9:b6:35:f5:94:4b:b1:ca:84:64:cc:f6:b5:24:
                    74:8a:9b:e6:19:7b:f6:26:03:f6:16:3a:14:8d:82:
                    9d:7a:27:78:6f:61:b2:09:e0:6f:62:d1:c8:94:4b:
                    3e:85:79:81:72:c7:57:81:99:9d:e3:9e:e9:70:b5:
                    35:da:67
                Exponent: 65537 (0x10001)
        X509v3 extensions:
            X509v3 Basic Constraints: critical
                CA:TRUE
            X509v3 Subject Key Identifier: 
                A0:86:9C:38:64:80:8A:50:DD:78:7B:4D:EF:17:A8:53:FE:31:73:85
            X509v3 Authority Key Identifier: 
                A0:86:9C:38:64:80:8A:50:DD:78:7B:4D:EF:17:A8:53:FE:31:73:85
            X509v3 Key Usage: critical
                Certificate Sign, CRL Sign
    Signature Algorithm: sha256WithRSAEncryption
    Signature Value:
        6e:97:e8:7c:fa:a9:42:02:96:53:ad:76:33:56:6b:63:e9:97:
        9e:d2:a0:82:2f:8f:e7:ec:c8:f8:0f:c8:c9:06:40:2e:94:b6:
        fc:ec:8c:82:eb:f1:55:cb:18:c8:39:7d:d7:91:36:dc:13:3a:
        3b:96:51:67:cf:69:74:28:1b:51:c4:2c:bb:aa:be:dd:30:e0:
        0a:64:a4:e5:25:18:04:d9:0e:7f:38:c0:8e:8b:d8:00:d6:9c:
        6a:be:18:b0:b6:65:dd:09:68:72:df:27:02:89:ee:99:89:03:
        5c:58:23:2e:5a:6f:ec:76:e9:0c:d0:3c:e5:12:22:44:37:2d:
        2f:6e:64:68:87:1c:c5:b1:5c:20:ef:b2:c9:fa:c5:19:63:2d:
        9d:0c:a1:5d:24:83:03:c5:3b:41:05:66:b0:b9:c6:72:93:dd:
        3b:c0:41:76:ee:f6:dc:61:73:fb:85:94:e7:fd:e2:71:ec:6d:
        a9:45:64:3d:b8:5c:6c:b0:92:c7:e0:4d:49:af:f7:d5:ef:4f:
        00:57:67:60:f9:30:e9:d5:2a:52:1d:c7:6b:77:42:f0:24:eb:
        e1:75:d4:b7:bd:22:0e:db:e9:84:d2:1a:1d:7b:01:3c:2c:ef:
        e7:81:25:63:02:19:0b:9c:e9:29:62:63:56:05:05:93:1f:a6:
        89:fe:a6:69:1b:1c:c6:0f:a6:c0:80:94:65:a8:f6:c2:7f:7c:
        94:18:ec:dc:97:cc:4e:e1:64:75:7e:55:21:72:aa:8e:62:28:
        e5:4d:11:a8:8c:8a:f2:89:30:0b:ac:ca:de:4d:f9:6f:a9:d1:
        cc:1f:82:a1:be:b2:c4:27:7e:ce:05:cb:e6:0d:f8:0d:d8:0f:
        e2:1c:7e:e1:27:45:df:6e:2b:ac:d5:9f:56:76:67:4e:c0:d0:
        2f:15:65:95:a7:74:80:f9:48:2c:6c:2d:ee:3b:cd:53:50:ee:
        5b:e0:7e:a6:f8:2c:d6:38:24:69:23:d0:3e:b9:a5:4a:e0:51:
        ef:40:0a:f0:df:4d:a5:d1:1a:24:e1:f9:4c:a3:93:f5:ac:45:
        05:9a:07:2d:af:a4:c5:11:10:d1:ef:d3:82:9a:13:fb:f0:55:
        1a:87:d6:c2:92:62:bf:b7:e5:96:77:38:e3:7b:66:87:3c:40:
        a3:65:52:c1:48:f9:fa:ea:bb:54:39:3b:cc:24:36:f2:33:c9:
        00:3f:0d:9c:8e:ba:27:fc:8e:e9:2e:e2:4c:a3:bb:55:89:c2:
        de:40:b8:3d:57:61:3e:a6:7e:86:cf:e2:42:85:1b:b2:56:5f:
        03:ad:9d:e3:db:dd:a7:46:9a:22:83:a8:38:fb:3d:2f:fd:dd:
        a7:19:d9:74:e0:82:ac:b6
-----BEGIN CERTIFICATE-----
MIIFkTCCA3mgAwIBAgIUYmnHS4ZL2Fh03sk3vTtsrcfRlA4wDQYJKoZIhvcNAQEL
BQAwUDELMAkGA1UEBhMCRVMxEjAQBgNVBAgMCUJhcmNlbG9uYTEPMA0GA1UECgwG
QVMgb3JnMQ8wDQYDVQQLDAZBUyBvcmcxCzAJBgNVBAMMAkNBMB4XDTI1MTEyMzE3
MDUxMloXDTM1MTEyMzE3MDUxMlowUDELMAkGA1UEBhMCRVMxEjAQBgNVBAgMCUJh
cmNlbG9uYTEPMA0GA1UECgwGQVMgb3JnMQ8wDQYDVQQLDAZBUyBvcmcxCzAJBgNV
BAMMAkNBMIICIjANBgkqhkiG9w0BAQEFAAOCAg8AMIICCgKCAgEAuWBwkxPr0ejo
fXtxSw3jWqHvfu3LkjgZg9ADT0L8OAvK79HDKDG576Cl3gdkteQ4RAcZ5+nhBTM7
0gjv92WinzAhoHc7Mz/KPIaEa/gfClVm9MFEFmckGCrT7dulNKIcivCx48g04C79
rojW+tv/XAlPuzb6kddH7kJCbsQfcVuemHbevnxBTVs4iQRVrf68UTj0BN4PW4Uk
Cxu5L+sMEFWAMTS8BOGuBCE2OkhxJZjeA3iRKJ8+go43Y1W/jIzon6yhrbh2kpWw
yFAwRd+STdCoktoBWhJaLlzvhBY0eTb16htyz/yOEr4wVyWwG/5Uh+itNRlAO0Sp
4HcevTfFs2iNCZwH09UhadW83bEjCyG96CLDZL5c8bj8oI+IkwvwmhoRQyw606CK
YjCZuAZQbFDYokup7UY2OpNJFtVS4zY07cx1nt0A85CYpSDwol7Hh6c95WWKzO/0
81CtJYwz24CngYtwVfvkMKbYziDCo4pR1P5AHPGZtFnfP9VAI6pFcQxTdjoHRpEv
d/1ldHmQEJ1Pb3HoEafA8eK86BNbkOTLUI9Kq6cCVJYNixunJiAFTMwv2J//7cHU
7w16Rdnc14ihubY19ZRLscqEZMz2tSR0ipvmGXv2JgP2FjoUjYKdeid4b2GyCeBv
YtHIlEs+hXmBcsdXgZmd457pcLU12mcCAwEAAaNjMGEwDwYDVR0TAQH/BAUwAwEB
/zAdBgNVHQ4EFgQUoIacOGSAilDdeHtN7xeoU/4xc4UwHwYDVR0jBBgwFoAUoIac
OGSAilDdeHtN7xeoU/4xc4UwDgYDVR0PAQH/BAQDAgEGMA0GCSqGSIb3DQEBCwUA
A4ICAQBul+h8+qlCApZTrXYzVmtj6Zee0qCCL4/n7Mj4D8jJBkAulLb87IyC6/FV
yxjIOX3XkTbcEzo7llFnz2l0KBtRxCy7qr7dMOAKZKTlJRgE2Q5/OMCOi9gA1pxq
vhiwtmXdCWhy3ycCie6ZiQNcWCMuWm/sdukM0DzlEiJENy0vbmRohxzFsVwg77LJ
+sUZYy2dDKFdJIMDxTtBBWawucZyk907wEF27vbcYXP7hZTn/eJx7G2pRWQ9uFxs
sJLH4E1Jr/fV708AV2dg+TDp1SpSHcdrd0LwJOvhddS3vSIO2+mE0hodewE8LO/n
gSVjAhkLnOkpYmNWBQWTH6aJ/qZpGxzGD6bAgJRlqPbCf3yUGOzcl8xO4WR1flUh
cqqOYijlTRGojIryiTALrMreTflvqdHMH4KhvrLEJ37OBcvmDfgN2A/iHH7hJ0Xf
bius1Z9WdmdOwNAvFWWVp3SA+UgsbC3uO81TUO5b4H6m+CzWOCRpI9A+uaVK4FHv
QArw302l0Rok4flMo5P1rEUFmgctr6TFERDR79OCmhP78FUah9bCkmK/t+WWdzjj
e2aHPECjZVLBSPn66rtUOTvMJDbyM8kAPw2cjron/I7pLuJMo7tVicLeQLg9V2E+
pn6Gz+JChRuyVl8DrZ3j292nRpoig6g4+z0v/d2nGdl04IKstg==
-----END CERTIFICATE-----
