Certificate:
    Data:
        Version: 3 (0x2)
        Serial Number:
            62:69:c7:4b:86:4b:d8:58:74:de:c9:37:bd:3b:6c:ad:c7:d1:94:11
        Signature Algorithm: sha256WithRSAEncryption
        Issuer: C=ES, ST=Barcelona, O=AS org, OU=AS org, CN=CA
        Validity
            Not Before: Nov 23 18:21:22 2025 GMT
            Not After : Nov 23 18:21:22 2026 GMT
        Subject: C=ES, ST=Barcelona, O=AS org, OU=AS org, CN=backend
        Subject Public Key Info:
            Public Key Algorithm: rsaEncryption
                Public-Key: (4096 bit)
                Modulus:
                    00:c8:07:1c:77:76:d7:fd:65:46:06:9b:78:f7:66:
                    84:e8:83:4e:48:5d:29:b3:69:81:70:7d:c0:ed:a5:
                    80:d6:6b:b3:1f:19:1c:4e:b4:4d:a2:c4:a3:78:72:
                    09:b4:83:eb:97:2f:69:00:d2:07:9c:99:a9:d0:3f:
                    b9:8e:82:97:fb:40:1c:e9:8f:c4:2b:9f:17:70:36:
                    d1:64:81:51:7a:e1:5e:0d:72:5f:9d:ff:31:b5:e6:
                    40:d8:67:dc:9b:44:16:46:2d:f1:9c:6e:fc:3f:eb:
                    dc:c1:17:01:27:56:9e:b3:9f:e7:b3:90:7a:e5:bb:
                    64:63:59:73:4d:d1:a3:b7:58:94:7e:04:25:b0:f4:
                    c7:29:ee:9b:43:3b:9b:96:46:7a:97:7b:e5:a9:ae:
                    76:8b:07:84:63:b2:04:6f:90:d8:93:19:4c:6d:e4:
                    8c:f2:02:bf:d1:a0:8f:44:f6:c5:ce:7f:cb:90:44:
                    87:81:41:40:3a:ad:bb:f4:a1:f9:50:3d:fa:26:49:
                    b7:a4:5c:36:c6:38:e5:da:82:1d:00:1c:90:b7:52:
                    aa:7d:ae:95:2e:f1:a5:ae:8d:73:0f:4e:9d:5a:f4:
                    9c:c5:ac:a3:8b:12:7c:0b:dd:c4:8a:bb:e6:0c:bc:
                    0b:74:91:12:04:77:7d:75:eb:2e:74:09:88:96:c0:
                    25:5f:a0:03:1c:67:bc:2a:0a:41:1e:d8:71:01:fa:
                    17:40:5c:ec:b0:22:0a:a0:99:21:6f:fb:20:09:30:
                    2f:70:e4:e1:88:02:04:c0:fb:9d:33:e6:2f:09:83:
                    a5:f3:d6:e2:00:ae:1b:bd:c9:ae:37:a4:82:18:12:
                    2a:ae:8e:a8:46:db:b6:b1:2f:25:fc:07:2d:c7:b0:
                    33:55:d0:5c:d1:08:29:ab:f8:db:7c:9f:23:93:f6:
                    df:ac:65:fb:f3:6d:eb:ca:24:19:a0:2c:70:83:f0:
                    e2:ee:64:bd:f2:39:c2:79:26:b9:34:14:56:4e:80:
                    6a:d7:9b:df:15:61:09:1e:9d:78:d4:28:de:0f:3a:
                    27:cf:8a:fb:2c:80:9e:d9:ec:88:70:dc:48:b6:e6:
                    88:9a:c5:9e:0f:39:75:ea:87:b2:55:da:68:ea:19:
                    fe:00:37:23:09:f5:cd:5a:1e:fa:3f:c4:89:e9:e0:
                    1d:6d:02:00:2f:e4:3a:33:95:55:21:fe:b5:ab:fe:
                    72:f6:68:d9:cf:d3:2b:39:e9:e3:14:4b:b0:72:cc:
                    68:a9:ca:7b:90:e5:72:a5:a3:17:ab:a1:d2:8f:37:
                    b0:aa:f5:6f:43:3e:b8:01:4a:06:e4:ac:56:a6:dc:
                    56:09:41:a1:74:8d:5a:b9:37:84:83:8e:f5:68:75:
                    27:c7:4d
                Exponent: 65537 (0x10001)
        X509v3 extensions:
            X509v3 Basic Constraints: 
                CA:FALSE
            Netscape Cert Type: 
                SSL Server
            Netscape Comment: 
                Backend TLS cert
            X509v3 Subject Key Identifier: 
                E8:02:54:11:BB:0D:2C:7B:30:C4:15:C9:3E:7C:5E:68:8B:1E:19:A3
            X509v3 Authority Key Identifier: 
                A0:86:9C:38:64:80:8A:50:DD:78:7B:4D:EF:17:A8:53:FE:31:73:85
            X509v3 Key Usage: critical
                Digital Signature, Key Encipherment
            X509v3 Extended Key Usage: 
                TLS Web Server Authentication
            X509v3 Subject Alternative Name: 
                DNS:localhost, IP Address:127.0.0.1
    Signature Algorithm: sha256WithRSAEncryption
    Signature Value:
        3b:0e:6a:42:4a:eb:2d:22:50:f0:91:f9:a6:42:99:2e:08:13:
        28:94:1c:a8:fa:c6:7e:60:e1:aa:c2:6a:41:1b:f5:98:23:f7:
        ec:6b:be:e5:8e:d9:b0:84:eb:8c:96:cc:97:28:34:73:aa:ea:
        7d:19:69:30:f6:7e:69:62:ad:14:a4:a7:9e:09:88:b9:ad:6d:
        57:0c:86:f1:5a:bb:ce:e1:6c:fd:bd:38:a8:56:60:70:1c:b2:
        65:ce:18:a1:0a:55:ab:6c:8d:01:ab:e6:67:2c:14:63:75:cb:
        cd:89:22:57:70:3e:76:64:df:dd:d3:2d:a9:ab:c3:a6:22:b1:
        0e:70:40:55:62:5f:fb:fa:5c:90:1e:b7:89:9d:aa:6a:6e:ac:
        1a:70:81:a7:88:a9:f7:14:73:49:09:80:2a:73:ad:2b:b9:16:
        be:e3:55:ba:4e:d9:c8:ce:64:a4:21:98:11:1f:dd:1b:85:d1:
        38:18:63:32:12:36:48:0a:1b:61:6e:4e:f4:1a:70:06:20:1a:
        21:09:37:34:95:45:15:9f:62:b5:75:a8:b0:98:a2:ca:b9:73:
        af:f4:c6:86:74:ed:77:51:73:b9:f6:f6:cc:dd:43:e4:63:3a:
        5d:a6:c5:c6:9a:aa:d0:da:a2:4b:68:a2:ff:92:db:eb:9c:06:
        93:67:c4:f4:39:7f:fb:1d:9d:73:c2:b3:b5:5e:12:14:c0:fe:
        c5:22:17:7d:88:42:dd:9e:d0:91:6b:f8:1b:36:b3:93:f3:da:
        5c:d4:7f:68:7d:42:56:e5:2b:63:0d:18:a6:a9:f2:b3:31:d1:
        cd:19:9b:a6:e8:f5:f8:5a:c8:4a:c6:37:df:4e:ec:a6:10:a9:
        40:21:0a:98:1a:a1:27:31:2f:e7:9e:d9:2d:63:c8:03:e4:ea:
        7f:6b:db:4f:f1:50:44:ff:fa:a6:70:b7:32:02:9b:89:9b:4a:
        91:5d:9f:ba:79:7d:cf:14:b4:ec:5b:e3:77:08:62:0d:33:db:
        58:1e:19:a3:02:99:02:7a:91:da:32:0b:c1:16:1e:8b:07:57:
        2d:85:f1:b9:1a:72:57:45:32:66:d2:f6:90:b6:c7:b5:be:22:
        a9:5f:49:6e:99:7f:b2:9b:a8:96:7f:26:bf:05:c2:f6:da:f6:
        54:90:7f:d7:a2:39:0c:d6:d9:03:03:1e:b7:0c:a6:a8:02:2c:
        af:eb:e8:bd:b8:48:40:6f:02:bc:3f:b7:88:2c:75:dd:ca:73:
        c8:81:4e:86:48:be:ba:28:8d:8f:35:24:af:72:f8:df:67:a2:
        e1:1e:30:bb:31:43:c1:c9:7b:45:c3:85:bc:48:b2:94:84:e7:
        26:cf:cd:c3:5a:cb:10:4a
-----BEGIN CERTIFICATE-----
MIIF9zCCA9+gAwIBAgIUYmnHS4ZL2Fh03sk3vTtsrcfRlBEwDQYJKoZIhvcNAQEL
BQAwUDELMAkGA1UEBhMCRVMxEjAQBgNVBAgMCUJhcmNlbG9uYTEPMA0GA1UECgwG
QVMgb3JnMQ8wDQYDVQQLDAZBUyBvcmcxCzAJBgNVBAMMAkNBMB4XDTI1MTEyMzE4
MjEyMloXDTI2MTEyMzE4MjEyMlowVTELMAkGA1UEBhMCRVMxEjAQBgNVBAgMCUJh
cmNlbG9uYTEPMA0GA1UECgwGQVMgb3JnMQ8wDQYDVQQLDAZBUyBvcmcxEDAOBgNV
BAMMB2JhY2tlbmQwggIiMA0GCSqGSIb3DQEBAQUAA4ICDwAwggIKAoICAQDIBxx3
dtf9ZUYGm3j3ZoTog05IXSmzaYFwfcDtpYDWa7MfGRxOtE2ixKN4cgm0g+uXL2kA
0gecmanQP7mOgpf7QBzpj8QrnxdwNtFkgVF64V4Ncl+d/zG15kDYZ9ybRBZGLfGc
bvw/69zBFwEnVp6zn+ezkHrlu2RjWXNN0aO3WJR+BCWw9Mcp7ptDO5uWRnqXe+Wp
rnaLB4RjsgRvkNiTGUxt5IzyAr/RoI9E9sXOf8uQRIeBQUA6rbv0oflQPfomSbek
XDbGOOXagh0AHJC3Uqp9rpUu8aWujXMPTp1a9JzFrKOLEnwL3cSKu+YMvAt0kRIE
d3116y50CYiWwCVfoAMcZ7wqCkEe2HEB+hdAXOywIgqgmSFv+yAJMC9w5OGIAgTA
+50z5i8Jg6Xz1uIArhu9ya43pIIYEiqujqhG27axLyX8By3HsDNV0FzRCCmr+Nt8
nyOT9t+sZfvzbevKJBmgLHCD8OLuZL3yOcJ5Jrk0FFZOgGrXm98VYQkenXjUKN4P
OifPivssgJ7Z7Ihw3Ei25oiaxZ4POXXqh7JV2mjqGf4ANyMJ9c1aHvo/xInp4B1t
AgAv5DozlVUh/rWr/nL2aNnP0ys56eMUS7ByzGipynuQ5XKloxerodKPN7Cq9W9D
PrgBSgbkrFam3FYJQaF0jVq5N4SDjvVodSfHTQIDAQABo4HDMIHAMAkGA1UdEwQC
MAAwEQYJYIZIAYb4QgEBBAQDAgZAMB8GCWCGSAGG+EIBDQQSFhBCYWNrZW5kIFRM
UyBjZXJ0MB0GA1UdDgQWBBToAlQRuw0sezDEFck+fF5oix4ZozAfBgNVHSMEGDAW
gBSghpw4ZICKUN14e03vF6hT/jFzhTAOBgNVHQ8BAf8EBAMCBaAwEwYDVR0lBAww
CgYIKwYBBQUHAwEwGgYDVR0RBBMwEYIJbG9jYWxob3N0hwR/AAABMA0GCSqGSIb3
DQEBCwUAA4ICAQA7DmpCSustIlDwkfmmQpkuCBMolByo+sZ+YOGqwmpBG/WYI/fs
a77ljtmwhOuMlsyXKDRzqup9GWkw9n5pYq0UpKeeCYi5rW1XDIbxWrvO4Wz9vTio
VmBwHLJlzhihClWrbI0Bq+ZnLBRjdcvNiSJXcD52ZN/d0y2pq8OmIrEOcEBVYl/7
+lyQHreJnapqbqwacIGniKn3FHNJCYAqc60ruRa+41W6TtnIzmSkIZgRH90bhdE4
GGMyEjZIChthbk70GnAGIBohCTc0lUUVn2K1daiwmKLKuXOv9MaGdO13UXO59vbM
3UPkYzpdpsXGmqrQ2qJLaKL/ktvrnAaTZ8T0OX/7HZ1zwrO1XhIUwP7FIhd9iELd
ntCRa/gbNrOT89pc1H9ofUJW5StjDRimqfKzMdHNGZum6PX4WshKxjffTuymEKlA
IQqYGqEnMS/nntktY8gD5Op/a9tP8VBE//qmcLcyApuJm0qRXZ+6eX3PFLTsW+N3
CGINM9tYHhmjApkCepHaMgvBFh6LB1cthfG5GnJXRTJm0vaQtse1viKpX0lumX+y
m6iWfya/BcL22vZUkH/XojkM1tkDAx63DKaoAiyv6+i9uEhAbwK8P7eILHXdynPI
gU6GSL66KI2PNSSvcvjfZ6LhHjC7MUPByXtFw4W8SLKUhOcmz83DWssQSg==
-----END CERTIFICATE-----
